target datalayout = "e-m:e-p270:32:32-p271:32:32-p272:64:64-i64:64-i128:128-f80:128-n8:16:32:64-S128"
target triple = "x86_64-pc-linux-gnu"

%struct.PQArgBlock = type { i32, i32, %union.anon }
%union.anon = type { ptr }
%struct.pg_conn = type { ptr, ptr, ptr, ptr, ptr, ptr, ptr, ptr, ptr, ptr, ptr, ptr, ptr, ptr, ptr, ptr, ptr, ptr, ptr, ptr, ptr, ptr, ptr, ptr, ptr, ptr, ptr, ptr, ptr, ptr, ptr, ptr, ptr, ptr, ptr, ptr, ptr, ptr, ptr, ptr, ptr, ptr, ptr, i8, ptr, i32, %struct.PGNoticeHooks, ptr, i32, i32, i32, i32, i32, [6 x i8], i8, i8, i32, i8, i8, i32, i8, i32, ptr, ptr, i32, i32, ptr, ptr, ptr, ptr, ptr, i32, %struct.SockAddr, %struct.SockAddr, i32, i32, i8, i8, i8, i8, i8, i8, ptr, i8, i32, [1 x ptr], i8, i8, ptr, ptr, i32, i32, i32, i8, i8, i32, i32, ptr, i8, i64, ptr, i64, ptr, i32, i32, ptr, i32, i8, i32, i32, i32, i32, ptr, %struct.pg_prng_state, ptr, i32, i32, i32, i32, ptr, i32, i32, i32, i32, ptr, i32, ptr, i8, ptr, ptr, ptr, i32, i8, i8, i8, i8, i8, i8, i8, i8, %struct.PQExpBufferData, i32, %struct.PQExpBufferData }
%struct.PGNoticeHooks = type { ptr, ptr, ptr, ptr }
%struct.SockAddr = type { %struct.sockaddr_storage, i32 }
%struct.sockaddr_storage = type { i16, [118 x i8], i64 }
%struct.pg_prng_state = type { i64, i64 }
%struct.PQExpBufferData = type { ptr, i64, i64 }
%struct.pgLobjfuncs = type { i32, i32, i32, i32, i32, i32, i32, i32, i32, i32, i32, i32, i32 }

; Function Attrs: nounwind uwtable
define i32 @lo_lseek(ptr noundef %0, i32 noundef %1, i32 noundef %2, i32 noundef %3) #0 {
  %5 = alloca i32, align 4
  %6 = alloca ptr, align 8
  %7 = alloca i32, align 4
  %8 = alloca i32, align 4
  %9 = alloca i32, align 4
  %10 = alloca [3 x %struct.PQArgBlock], align 16
  %11 = alloca ptr, align 8
  %12 = alloca i32, align 4
  %13 = alloca i32, align 4
  %14 = alloca i32, align 4
  store ptr %0, ptr %6, align 8
  store i32 %1, ptr %7, align 4
  store i32 %2, ptr %8, align 4
  store i32 %3, ptr %9, align 4
  call void @llvm.lifetime.start.p0(i64 48, ptr %10) #10
  call void @llvm.lifetime.start.p0(i64 8, ptr %11) #10
  call void @llvm.lifetime.start.p0(i64 4, ptr %12) #10
  call void @llvm.lifetime.start.p0(i64 4, ptr %13) #10
  %15 = load ptr, ptr %6, align 8
  %16 = call i32 @lo_initialize(ptr noundef %15)
  %17 = icmp slt i32 %16, 0
  br i1 %17, label %18, label %19

18:                                               ; preds = %4
  store i32 -1, ptr %5, align 4
  store i32 1, ptr %14, align 4
  br label %57

19:                                               ; preds = %4
  %20 = getelementptr inbounds [3 x %struct.PQArgBlock], ptr %10, i64 0, i64 0
  %21 = getelementptr inbounds nuw %struct.PQArgBlock, ptr %20, i32 0, i32 1
  store i32 1, ptr %21, align 4
  %22 = getelementptr inbounds [3 x %struct.PQArgBlock], ptr %10, i64 0, i64 0
  %23 = getelementptr inbounds nuw %struct.PQArgBlock, ptr %22, i32 0, i32 0
  store i32 4, ptr %23, align 16
  %24 = load i32, ptr %7, align 4
  %25 = getelementptr inbounds [3 x %struct.PQArgBlock], ptr %10, i64 0, i64 0
  %26 = getelementptr inbounds nuw %struct.PQArgBlock, ptr %25, i32 0, i32 2
  store i32 %24, ptr %26, align 8
  %27 = getelementptr inbounds [3 x %struct.PQArgBlock], ptr %10, i64 0, i64 1
  %28 = getelementptr inbounds nuw %struct.PQArgBlock, ptr %27, i32 0, i32 1
  store i32 1, ptr %28, align 4
  %29 = getelementptr inbounds [3 x %struct.PQArgBlock], ptr %10, i64 0, i64 1
  %30 = getelementptr inbounds nuw %struct.PQArgBlock, ptr %29, i32 0, i32 0
  store i32 4, ptr %30, align 16
  %31 = load i32, ptr %8, align 4
  %32 = getelementptr inbounds [3 x %struct.PQArgBlock], ptr %10, i64 0, i64 1
  %33 = getelementptr inbounds nuw %struct.PQArgBlock, ptr %32, i32 0, i32 2
  store i32 %31, ptr %33, align 8
  %34 = getelementptr inbounds [3 x %struct.PQArgBlock], ptr %10, i64 0, i64 2
  %35 = getelementptr inbounds nuw %struct.PQArgBlock, ptr %34, i32 0, i32 1
  store i32 1, ptr %35, align 4
  %36 = getelementptr inbounds [3 x %struct.PQArgBlock], ptr %10, i64 0, i64 2
  %37 = getelementptr inbounds nuw %struct.PQArgBlock, ptr %36, i32 0, i32 0
  store i32 4, ptr %37, align 16
  %38 = load i32, ptr %9, align 4
  %39 = getelementptr inbounds [3 x %struct.PQArgBlock], ptr %10, i64 0, i64 2
  %40 = getelementptr inbounds nuw %struct.PQArgBlock, ptr %39, i32 0, i32 2
  store i32 %38, ptr %40, align 8
  %41 = load ptr, ptr %6, align 8
  %42 = load ptr, ptr %6, align 8
  %43 = getelementptr inbounds nuw %struct.pg_conn, ptr %42, i32 0, i32 112
  %44 = load ptr, ptr %43, align 8
  %45 = getelementptr inbounds nuw %struct.pgLobjfuncs, ptr %44, i32 0, i32 5
  %46 = load i32, ptr %45, align 4
  %47 = getelementptr inbounds [3 x %struct.PQArgBlock], ptr %10, i64 0, i64 0
  %48 = call ptr @PQfn(ptr noundef %41, i32 noundef %46, ptr noundef %12, ptr noundef %13, i32 noundef 1, ptr noundef %47, i32 noundef 3)
  store ptr %48, ptr %11, align 8
  %49 = load ptr, ptr %11, align 8
  %50 = call i32 @PQresultStatus(ptr noundef %49)
  %51 = icmp eq i32 %50, 1
  br i1 %51, label %52, label %55

52:                                               ; preds = %19
  %53 = load ptr, ptr %11, align 8
  call void @PQclear(ptr noundef %53)
  %54 = load i32, ptr %12, align 4
  store i32 %54, ptr %5, align 4
  store i32 1, ptr %14, align 4
  br label %57

55:                                               ; preds = %19
  %56 = load ptr, ptr %11, align 8
  call void @PQclear(ptr noundef %56)
  store i32 -1, ptr %5, align 4
  store i32 1, ptr %14, align 4
  br label %57

57:                                               ; preds = %55, %52, %18
  call void @llvm.lifetime.end.p0(i64 4, ptr %13) #10
  call void @llvm.lifetime.end.p0(i64 4, ptr %12) #10
  call void @llvm.lifetime.end.p0(i64 8, ptr %11) #10
  call void @llvm.lifetime.end.p0(i64 48, ptr %10) #10
  %58 = load i32, ptr %5, align 4
  ret i32 %58
}