; Function Attrs: nounwind uwtable
define i32 @lo_lseek(ptr noundef %0, i32 noundef %1, i32 noundef %2, i32 noundef %3) local_unnamed_addr #0 {
  %5 = alloca [3 x %struct.PQArgBlock], align 16
  %6 = alloca i32, align 4
  %7 = alloca i32, align 4
  call void @llvm.lifetime.start.p0(i64 48, ptr nonnull %5) #10
  call void @llvm.lifetime.start.p0(i64 4, ptr nonnull %6) #10
  call void @llvm.lifetime.start.p0(i64 4, ptr nonnull %7) #10
  %8 = tail call fastcc i32 @lo_initialize(ptr noundef %0)
  %9 = icmp slt i32 %8, 0
  br i1 %9, label %27, label %10

10:                                               ; preds = %4
  %11 = getelementptr inbounds nuw i8, ptr %5, i64 4
  store i32 1, ptr %11, align 4
  store i32 4, ptr %5, align 16
  %12 = getelementptr inbounds nuw i8, ptr %5, i64 8
  store i32 %1, ptr %12, align 8
  %13 = getelementptr inbounds nuw i8, ptr %5, i64 16
  %14 = getelementptr inbounds nuw i8, ptr %5, i64 20
  store i32 1, ptr %14, align 4
  store i32 4, ptr %13, align 16
  %15 = getelementptr inbounds nuw i8, ptr %5, i64 24
  store i32 %2, ptr %15, align 8
  %16 = getelementptr inbounds nuw i8, ptr %5, i64 32
  %17 = getelementptr inbounds nuw i8, ptr %5, i64 36
  store i32 1, ptr %17, align 4
  store i32 4, ptr %16, align 16
  %18 = getelementptr inbounds nuw i8, ptr %5, i64 40
  store i32 %3, ptr %18, align 8
  %19 = getelementptr inbounds nuw i8, ptr %0, i64 976
  %20 = load ptr, ptr %19, align 8
  %21 = getelementptr inbounds nuw i8, ptr %20, i64 20
  %22 = load i32, ptr %21, align 4
  %23 = call ptr @PQfn(ptr noundef %0, i32 noundef %22, ptr noundef nonnull %6, ptr noundef nonnull %7, i32 noundef 1, ptr noundef nonnull %5, i32 noundef 3) #10
  %24 = call i32 @PQresultStatus(ptr noundef %23) #10
  %25 = icmp eq i32 %24, 1
  call void @PQclear(ptr noundef %23) #10
  %26 = load i32, ptr %6, align 4
  %spec.select = select i1 %25, i32 %26, i32 -1
  br label %27

27:                                               ; preds = %10, %4
  %.0 = phi i32 [ -1, %4 ], [ %spec.select, %10 ]
  call void @llvm.lifetime.end.p0(i64 4, ptr nonnull %7) #10
  call void @llvm.lifetime.end.p0(i64 4, ptr nonnull %6) #10
  call void @llvm.lifetime.end.p0(i64 48, ptr nonnull %5) #10
  ret i32 %.0
}